Certificate:
    Data:
        Version: 3 (0x2)
        Serial Number:
            1b:78:c4:84:9f:bb:58:f8:b0:f6:41:0e:13:cf:b4:07
        Signature Algorithm: sha256WithRSAEncryption
        Issuer: CN=ChangeMe
        Validity
            Not Before: Jan 14 06:29:26 2022 GMT
            Not After : Dec 29 06:29:26 2024 GMT
        Subject: CN=ChangeMe
        Subject Public Key Info:
            Public Key Algorithm: rsaEncryption
                RSA Public-Key: (2048 bit)
                Modulus:
                    00:a4:9e:61:b4:b0:6c:02:fe:39:e1:fd:53:18:c6:
                    2e:20:0e:19:eb:e2:6b:1d:1a:f6:af:66:6b:27:0f:
                    c1:2c:26:d3:db:9e:9d:95:95:20:59:a1:82:1b:fd:
                    51:06:97:7b:7c:2e:5e:d3:7b:5a:c5:fd:a3:2c:a5:
                    d9:70:63:85:3c:95:75:39:40:a5:2a:e1:9b:8f:2d:
                    ae:c0:4b:50:70:60:a0:db:bc:9b:86:bf:89:37:41:
                    62:50:a1:c6:dd:12:fe:64:e8:4d:03:8e:6a:1f:d4:
                    8b:18:30:af:bf:18:ee:b5:70:76:8a:0c:03:a6:74:
                    29:ca:49:36:69:bc:0e:f4:a4:9d:18:23:a8:fb:3a:
                    6e:d8:1a:0d:e5:37:78:af:13:57:1b:6b:9a:2c:4e:
                    21:06:6e:2b:7a:87:79:b8:ee:a3:4e:ce:44:75:9e:
                    97:9b:51:71:67:bf:9a:1e:91:c1:9c:47:f6:99:fb:
                    29:a6:03:1a:c1:fb:e1:3a:8c:87:b8:68:97:94:6c:
                    27:55:bf:28:fc:17:c8:1f:13:11:9f:b9:be:1e:5a:
                    2f:1d:57:fe:cb:cf:f3:11:ff:92:e6:c6:f3:ad:f8:
                    c8:4d:af:77:24:71:5e:8b:c5:ca:db:69:59:98:15:
                    4a:e0:07:53:fb:28:32:a8:90:65:06:26:1d:a6:1b:
                    37:0f
                Exponent: 65537 (0x10001)
        X509v3 extensions:
            X509v3 Basic Constraints: 
                CA:FALSE
            X509v3 Subject Key Identifier: 
                5E:5F:C6:BB:CF:8C:AA:7A:B3:F5:86:57:EF:F9:42:C8:8A:73:DE:E5
            X509v3 Authority Key Identifier: 
                keyid:48:F5:FC:3F:A5:87:FC:41:01:80:83:B4:E9:FF:03:1C:76:AE:FE:DE
                DirName:/CN=ChangeMe
                serial:12:DA:B5:8F:FD:E9:D4:92:24:41:85:81:87:7C:5C:54:12:91:86:D4

            X509v3 Extended Key Usage: 
                TLS Web Server Authentication
            X509v3 Key Usage: 
                Digital Signature, Key Encipherment
            X509v3 Subject Alternative Name: 
                DNS:ChangeMe
    Signature Algorithm: sha256WithRSAEncryption
         8e:80:61:1a:57:a0:e6:19:ef:43:ee:6d:10:ad:71:02:27:63:
         b0:ea:71:8a:6b:4f:e4:06:a0:3d:e2:c4:f3:8c:0c:0c:c3:eb:
         4a:d7:19:4f:64:fd:cd:3f:d4:40:55:eb:22:bc:f7:fe:d4:24:
         0b:d7:d1:ad:77:f5:b8:de:0d:fc:86:91:ac:ea:91:94:a4:1e:
         b3:db:c7:1d:35:a7:bd:0a:1b:eb:be:64:50:de:99:64:c2:b4:
         ca:21:bb:1d:f5:08:b8:dc:57:ce:9f:23:0e:29:45:cb:d7:08:
         36:45:ef:cb:03:bd:6c:b6:3a:c7:a5:f5:26:5a:0b:32:5e:7e:
         a0:a8:51:12:bc:11:5d:7d:e8:20:eb:38:56:36:bf:68:3e:b1:
         45:88:49:ac:a9:66:04:4c:10:5e:4f:7c:10:57:12:a6:cb:68:
         ab:c3:cd:8b:ea:0f:30:5e:93:78:6f:29:a3:f1:a3:05:85:56:
         1c:b0:91:cc:c3:2d:a2:88:90:b7:9e:3a:3f:e0:84:0f:fd:f0:
         06:4b:0e:57:41:21:cf:32:37:3a:1a:a2:ea:3d:cd:9a:08:18:
         2b:7c:73:2c:e6:8a:76:9a:98:5b:8e:cc:77:4d:aa:f7:55:ac:
         dd:61:0f:12:b0:29:5d:d8:5a:11:24:b0:0c:96:5d:6e:c6:24:
         ed:9d:06:b4
-----BEGIN CERTIFICATE-----
MIIDZTCCAk2gAwIBAgIQG3jEhJ+7WPiw9kEOE8+0BzANBgkqhkiG9w0BAQsFADAT
MREwDwYDVQQDDAhDaGFuZ2VNZTAeFw0yMjAxMTQwNjI5MjZaFw0yNDEyMjkwNjI5
MjZaMBMxETAPBgNVBAMMCENoYW5nZU1lMIIBIjANBgkqhkiG9w0BAQEFAAOCAQ8A
MIIBCgKCAQEApJ5htLBsAv454f1TGMYuIA4Z6+JrHRr2r2ZrJw/BLCbT256dlZUg
WaGCG/1RBpd7fC5e03taxf2jLKXZcGOFPJV1OUClKuGbjy2uwEtQcGCg27ybhr+J
N0FiUKHG3RL+ZOhNA45qH9SLGDCvvxjutXB2igwDpnQpykk2abwO9KSdGCOo+zpu
2BoN5Td4rxNXG2uaLE4hBm4reod5uO6jTs5EdZ6Xm1FxZ7+aHpHBnEf2mfsppgMa
wfvhOoyHuGiXlGwnVb8o/BfIHxMRn7m+HlovHVf+y8/zEf+S5sbzrfjITa93JHFe
i8XK22lZmBVK4AdT+ygyqJBlBiYdphs3DwIDAQABo4G0MIGxMAkGA1UdEwQCMAAw
HQYDVR0OBBYEFF5fxrvPjKp6s/WGV+/5QsiKc97lME4GA1UdIwRHMEWAFEj1/D+l
h/xBAYCDtOn/Axx2rv7eoRekFTATMREwDwYDVQQDDAhDaGFuZ2VNZYIUEtq1j/3p
1JIkQYWBh3xcVBKRhtQwEwYDVR0lBAwwCgYIKwYBBQUHAwEwCwYDVR0PBAQDAgWg
MBMGA1UdEQQMMAqCCENoYW5nZU1lMA0GCSqGSIb3DQEBCwUAA4IBAQCOgGEaV6Dm
Ge9D7m0QrXECJ2Ow6nGKa0/kBqA94sTzjAwMw+tK1xlPZP3NP9RAVesivPf+1CQL
19Gtd/W43g38hpGs6pGUpB6z28cdNae9ChvrvmRQ3plkwrTKIbsd9Qi43FfOnyMO
KUXL1wg2Re/LA71stjrHpfUmWgsyXn6gqFESvBFdfegg6zhWNr9oPrFFiEmsqWYE
TBBeT3wQVxKmy2irw82L6g8wXpN4bymj8aMFhVYcsJHMwy2iiJC3njo/4IQP/fAG
Sw5XQSHPMjc6GqLqPc2aCBgrfHMs5op2mphbjsx3Tar3VazdYQ8SsCld2FoRJLAM
ll1uxiTtnQa0
-----END CERTIFICATE-----
